; Function Attrs: nounwind uwtable
define dso_local i64 @parse_signed_buffer(ptr noundef %0, i64 noundef %1) local_unnamed_addr #2 {
  %.not = icmp eq i64 %1, 0
  br i1 %.not, label %._crit_edge, label %.lr.ph

.lr.ph:                                           ; preds = %2, %get_format_by_sig.exit
  %.023 = phi i64 [ %20, %get_format_by_sig.exit ], [ 0, %2 ]
  %.01722 = phi i64 [ %spec.select.i, %get_format_by_sig.exit ], [ %1, %2 ]
  %3 = getelementptr inbounds nuw i8, ptr %0, i64 %.023
  br label %.preheader.i

.preheader.i:                                     ; preds = %._crit_edge.i, %.lr.ph
  %.01018.i = phi i64 [ 0, %.lr.ph ], [ %13, %._crit_edge.i ]
  %4 = getelementptr inbounds nuw [3 x %struct.gpg_format], ptr @gpg_format, i64 0, i64 %.01018.i, i32 3
  %5 = load ptr, ptr %4, align 8, !tbaa !22
  %6 = load ptr, ptr %5, align 8, !tbaa !25
  %.not16.i = icmp eq ptr %6, null
  br i1 %.not16.i, label %._crit_edge.i, label %.lr.ph.i

7:                                                ; preds = %.lr.ph.i
  %indvars.iv.next.i = add nuw nsw i64 %indvars.iv.i, 1
  %8 = load ptr, ptr %4, align 8, !tbaa !22
  %9 = getelementptr inbounds nuw ptr, ptr %8, i64 %indvars.iv.next.i
  %10 = load ptr, ptr %9, align 8, !tbaa !25
  %.not.i = icmp eq ptr %10, null
  br i1 %.not.i, label %._crit_edge.i, label %.lr.ph.i, !llvm.loop !26

.lr.ph.i:                                         ; preds = %.preheader.i, %7
  %indvars.iv.i = phi i64 [ %indvars.iv.next.i, %7 ], [ 0, %.preheader.i ]
  %11 = phi ptr [ %10, %7 ], [ %6, %.preheader.i ]
  %12 = tail call i32 @starts_with(ptr noundef %3, ptr noundef nonnull %11) #15
  %.not14.i = icmp eq i32 %12, 0
  br i1 %.not14.i, label %7, label %get_format_by_sig.exit

._crit_edge.i:                                    ; preds = %7, %.preheader.i
  %13 = add nuw nsw i64 %.01018.i, 1
  %exitcond.i = icmp eq i64 %13, 3
  br i1 %exitcond.i, label %get_format_by_sig.exit, label %.preheader.i, !llvm.loop !28

get_format_by_sig.exit:                           ; preds = %._crit_edge.i, %.lr.ph.i
  %spec.select.i = phi i64 [ %.023, %.lr.ph.i ], [ %.01722, %._crit_edge.i ]
  %14 = sub i64 %1, %.023
  %15 = tail call ptr @memchr(ptr noundef %3, i32 noundef 10, i64 noundef %14) #18
  %.not20 = icmp eq ptr %15, null
  %16 = ptrtoint ptr %15 to i64
  %17 = ptrtoint ptr %3 to i64
  %reass.sub = sub i64 %16, %17
  %18 = add i64 %reass.sub, 1
  %19 = select i1 %.not20, i64 %14, i64 %18
  %20 = add i64 %19, %.023
  %21 = icmp ult i64 %20, %1
  br i1 %21, label %.lr.ph, label %._crit_edge, !llvm.loop !37

._crit_edge:                                      ; preds = %get_format_by_sig.exit, %2
  %.017.lcssa = phi i64 [ 0, %2 ], [ %spec.select.i, %get_format_by_sig.exit ]
  ret i64 %.017.lcssa
}